target datalayout = "e-m:e-p270:32:32-p271:32:32-p272:64:64-i64:64-i128:128-f80:128-n8:16:32:64-S128"
target triple = "x86_64-unknown-linux-gnu"

%"class.google::protobuf::io::GzipInputStream" = type { %"class.google::protobuf::io::ZeroCopyInputStream", i32, ptr, %struct.z_stream_s, i32, ptr, ptr, i64, i64 }
%"class.google::protobuf::io::ZeroCopyInputStream" = type { ptr }
%struct.z_stream_s = type { ptr, i32, i64, ptr, i32, i64, ptr, ptr, ptr, ptr, ptr, i32, i64, i64 }

; Function Attrs: mustprogress nounwind uwtable
define void @_ZN6google8protobuf2io15GzipInputStream6BackUpEi(ptr noundef nonnull align 8 dereferenceable(176) %this, i32 noundef %count) unnamed_addr #5 align 2 {
entry:
  %this.addr = alloca ptr, align 8
  %count.addr = alloca i32, align 4
  store ptr %this, ptr %this.addr, align 8
  store i32 %count, ptr %count.addr, align 4
  %this1 = load ptr, ptr %this.addr, align 8
  %output_position_ = getelementptr inbounds %"class.google::protobuf::io::GzipInputStream", ptr %this1, i32 0, i32 6
  %0 = load ptr, ptr %output_position_, align 8
  %1 = ptrtoint ptr %0 to i64
  %2 = load i32, ptr %count.addr, align 4
  %conv = sext i32 %2 to i64
  %sub = sub i64 %1, %conv
  %3 = inttoptr i64 %sub to ptr
  %output_position_2 = getelementptr inbounds %"class.google::protobuf::io::GzipInputStream", ptr %this1, i32 0, i32 6
  store ptr %3, ptr %output_position_2, align 8
  ret void
}

; Function Attrs: mustprogress uwtable
define noundef zeroext i1 @_ZN6google8protobuf2io15GzipInputStream4SkipEi(ptr noundef nonnull align 8 dereferenceable(176) %this, i32 noundef %count) unnamed_addr #4 align 2 {
entry:
  %this.addr = alloca ptr, align 8
  %count.addr = alloca i32, align 4
  %data = alloca ptr, align 8
  %size = alloca i32, align 4
  %ok = alloca i8, align 1
  store ptr %this, ptr %this.addr, align 8
  store i32 %count, ptr %count.addr, align 4
  %this1 = load ptr, ptr %this.addr, align 8
  store i32 0, ptr %size, align 4
  %call = call noundef zeroext i1 @_ZN6google8protobuf2io15GzipInputStream4NextEPPKvPi(ptr noundef nonnull align 8 dereferenceable(176) %this1, ptr noundef %data, ptr noundef %size)
  %frombool = zext i1 %call to i8
  store i8 %frombool, ptr %ok, align 1
  br label %while.cond

while.cond:                                       ; preds = %while.body, %entry
  %0 = load i8, ptr %ok, align 1
  %tobool = trunc i8 %0 to i1
  br i1 %tobool, label %land.rhs, label %land.end

land.rhs:                                         ; preds = %while.cond
  %1 = load i32, ptr %size, align 4
  %2 = load i32, ptr %count.addr, align 4
  %cmp = icmp slt i32 %1, %2
  br label %land.end

land.end:                                         ; preds = %land.rhs, %while.cond
  %3 = phi i1 [ false, %while.cond ], [ %cmp, %land.rhs ]
  br i1 %3, label %while.body, label %while.end

while.body:                                       ; preds = %land.end
  %4 = load i32, ptr %size, align 4
  %5 = load i32, ptr %count.addr, align 4
  %sub = sub nsw i32 %5, %4
  store i32 %sub, ptr %count.addr, align 4
  %call2 = call noundef zeroext i1 @_ZN6google8protobuf2io15GzipInputStream4NextEPPKvPi(ptr noundef nonnull align 8 dereferenceable(176) %this1, ptr noundef %data, ptr noundef %size)
  %frombool3 = zext i1 %call2 to i8
  store i8 %frombool3, ptr %ok, align 1
  br label %while.cond, !llvm.loop !4

while.end:                                        ; preds = %land.end
  %6 = load i32, ptr %size, align 4
  %7 = load i32, ptr %count.addr, align 4
  %cmp4 = icmp sgt i32 %6, %7
  br i1 %cmp4, label %if.then, label %if.end

if.then:                                          ; preds = %while.end
  %8 = load i32, ptr %size, align 4
  %9 = load i32, ptr %count.addr, align 4
  %sub5 = sub nsw i32 %8, %9
  call void @_ZN6google8protobuf2io15GzipInputStream6BackUpEi(ptr noundef nonnull align 8 dereferenceable(176) %this1, i32 noundef %sub5)
  br label %if.end

if.end:                                           ; preds = %if.then, %while.end
  %10 = load i8, ptr %ok, align 1
  %tobool6 = trunc i8 %10 to i1
  ret i1 %tobool6
}