; Function Attrs: mustprogress uwtable
define noundef zeroext i1 @_ZN6google8protobuf2io15GzipInputStream4SkipEi(ptr noundef nonnull align 8 dereferenceable(176) %this, i32 noundef %count) unnamed_addr #3 align 2 {
entry:
  %data = alloca ptr, align 8
  %size = alloca i32, align 4
  store i32 0, ptr %size, align 4
  %call = call noundef zeroext i1 @_ZN6google8protobuf2io15GzipInputStream4NextEPPKvPi(ptr noundef nonnull align 8 dereferenceable(176) %this, ptr noundef nonnull %data, ptr noundef nonnull %size)
  %0 = load i32, ptr %size, align 4
  %cmp5 = icmp slt i32 %0, %count
  %1 = select i1 %call, i1 %cmp5, i1 false
  br i1 %1, label %while.body, label %while.end

while.body:                                       ; preds = %entry, %while.body
  %2 = phi i32 [ %3, %while.body ], [ %0, %entry ]
  %count.addr.06 = phi i32 [ %sub, %while.body ], [ %count, %entry ]
  %sub = sub nsw i32 %count.addr.06, %2
  %call2 = call noundef zeroext i1 @_ZN6google8protobuf2io15GzipInputStream4NextEPPKvPi(ptr noundef nonnull align 8 dereferenceable(176) %this, ptr noundef nonnull %data, ptr noundef nonnull %size)
  %3 = load i32, ptr %size, align 4
  %cmp = icmp slt i32 %3, %sub
  %4 = select i1 %call2, i1 %cmp, i1 false
  br i1 %4, label %while.body, label %while.end, !llvm.loop !4

while.end:                                        ; preds = %while.body, %entry
  %count.addr.0.lcssa = phi i32 [ %count, %entry ], [ %sub, %while.body ]
  %ok.0.in.lcssa = phi i1 [ %call, %entry ], [ %call2, %while.body ]
  %.lcssa = phi i32 [ %0, %entry ], [ %3, %while.body ]
  %cmp4 = icmp sgt i32 %.lcssa, %count.addr.0.lcssa
  br i1 %cmp4, label %if.then, label %if.end

if.then:                                          ; preds = %while.end
  %sub5 = sub nsw i32 %.lcssa, %count.addr.0.lcssa
  %output_position_.i = getelementptr inbounds i8, ptr %this, i64 152
  %5 = load ptr, ptr %output_position_.i, align 8
  %6 = ptrtoint ptr %5 to i64
  %conv.i = sext i32 %sub5 to i64
  %sub.i = sub i64 %6, %conv.i
  %7 = inttoptr i64 %sub.i to ptr
  store ptr %7, ptr %output_position_.i, align 8
  br label %if.end

if.end:                                           ; preds = %if.then, %while.end
  ret i1 %ok.0.in.lcssa
}